target datalayout = "e-m:e-p270:32:32-p271:32:32-p272:64:64-i64:64-i128:128-f80:128-n8:16:32:64-S128"
target triple = "x86_64-pc-linux-gnu"

%struct.reassembly_table = type { ptr, ptr, ptr, ptr, ptr }
%struct.reassembly_table_functions = type { ptr, ptr, ptr, ptr, ptr, ptr }

@.str = private unnamed_addr constant [6 x i8] c"HTTP2\00", align 1
@proto_http2 = internal global i32 0, align 4
@http2_tap = internal global i32 0, align 4
@http2_follow_tap = internal global i32 0, align 4
@.str.25 = private unnamed_addr constant [15 x i8] c"http2.streamid\00", align 1
@proto_register_http2.ett = internal global [9 x ptr] [ptr @ett_http2, ptr @ett_http2_header, ptr @ett_http2_headers, ptr @ett_http2_flags, ptr @ett_http2_settings, ptr @ett_http2_encoded_entity, ptr @ett_http2_body_fragment, ptr @ett_http2_body_fragments, ptr @ett_http2_origin], align 16
@.str.240 = private unnamed_addr constant [30 x i8] c"HyperText Transfer Protocol 2\00", align 1
@.str.241 = private unnamed_addr constant [6 x i8] c"http2\00", align 1
@.str.242 = private unnamed_addr constant [16 x i8] c"heuristic_http2\00", align 1
@http2_handle = internal global ptr null, align 8
@http2_body_reassembly_table = internal global %struct.reassembly_table zeroinitializer, align 8
@addresses_ports_reassembly_table_functions = external constant %struct.reassembly_table_functions, align 8
@http2_streaming_reassembly_table = internal global %struct.reassembly_table zeroinitializer, align 8
@.str.243 = private unnamed_addr constant [23 x i8] c"streaming_content_type\00", align 1
@.str.244 = private unnamed_addr constant [46 x i8] c"Data Transmitted over HTTP2 in Streaming Mode\00", align 1
@streaming_content_type_dissector_table = internal global ptr null, align 8
@.str.245 = private unnamed_addr constant [29 x i8] c"HTTP2 content type in stream\00", align 1
@stream_id_content_type_dissector_table = internal global ptr null, align 8
@.str.246 = private unnamed_addr constant [13 x i8] c"http2_follow\00", align 1

; Function Attrs: null_pointer_is_valid sspstrong uwtable
define hidden void @proto_register_http2() #1 {
  %1 = alloca ptr, align 8
  %2 = alloca ptr, align 8
  call void @llvm.lifetime.start.p0(i64 8, ptr %1) #7
  call void @llvm.lifetime.start.p0(i64 8, ptr %2) #7
  %3 = call i32 @proto_register_protocol(ptr noundef @.str.240, ptr noundef @.str, ptr noundef @.str.241)
  store i32 %3, ptr @proto_http2, align 4
  %4 = load i32, ptr @proto_http2, align 4
  call void @proto_register_field_array(i32 noundef %4, ptr noundef @proto_register_http2.hf, i32 noundef 99)
  call void @proto_register_subtree_array(ptr noundef @proto_register_http2.ett, i32 noundef 9)
  %5 = load i32, ptr @proto_http2, align 4
  %6 = call ptr @prefs_register_protocol(i32 noundef %5, ptr noundef null)
  store ptr %6, ptr %1, align 8
  %7 = load i32, ptr @proto_http2, align 4
  %8 = call ptr @expert_register_protocol(i32 noundef %7)
  store ptr %8, ptr %2, align 8
  %9 = load ptr, ptr %2, align 8
  call void @expert_register_field_array(ptr noundef %9, ptr noundef @proto_register_http2.ei, i32 noundef 4)
  %10 = load ptr, ptr %1, align 8
  call void @prefs_register_obsolete_preference(ptr noundef %10, ptr noundef @.str.242)
  call void @register_init_routine(ptr noundef @http2_init_protocol)
  call void @register_cleanup_routine(ptr noundef @http2_cleanup_protocol)
  %11 = load i32, ptr @proto_http2, align 4
  %12 = call ptr @register_dissector(ptr noundef @.str.241, ptr noundef @dissect_http2, i32 noundef %11)
  store ptr %12, ptr @http2_handle, align 8
  call void @reassembly_table_register(ptr noundef @http2_body_reassembly_table, ptr noundef @addresses_ports_reassembly_table_functions)
  call void @reassembly_table_register(ptr noundef @http2_streaming_reassembly_table, ptr noundef @addresses_ports_reassembly_table_functions)
  %13 = load i32, ptr @proto_http2, align 4
  %14 = call ptr @register_dissector_table(ptr noundef @.str.243, ptr noundef @.str.244, i32 noundef %13, i32 noundef 26, i32 noundef 0)
  store ptr %14, ptr @streaming_content_type_dissector_table, align 8
  %15 = load i32, ptr @proto_http2, align 4
  %16 = call ptr @register_dissector_table(ptr noundef @.str.25, ptr noundef @.str.245, i32 noundef %15, i32 noundef 7, i32 noundef 1)
  store ptr %16, ptr @stream_id_content_type_dissector_table, align 8
  %17 = call i32 @register_tap(ptr noundef @.str.241)
  store i32 %17, ptr @http2_tap, align 4
  %18 = call i32 @register_tap(ptr noundef @.str.246)
  store i32 %18, ptr @http2_follow_tap, align 4
  %19 = load i32, ptr @proto_http2, align 4
  call void @register_follow_stream(i32 noundef %19, ptr noundef @.str.246, ptr noundef @http2_follow_conv_filter, ptr noundef @http2_follow_index_filter, ptr noundef @tcp_follow_address_filter, ptr noundef @tcp_port_to_display, ptr noundef @follow_http2_tap_listener, ptr noundef @get_tcp_stream_count, ptr noundef @http2_get_sub_stream_id)
  call void @llvm.lifetime.end.p0(i64 8, ptr %2) #7
  call void @llvm.lifetime.end.p0(i64 8, ptr %1) #7
  ret void
}