; Function Attrs: null_pointer_is_valid sspstrong uwtable
define hidden void @proto_register_http2() local_unnamed_addr #1 {
  %1 = tail call i32 @proto_register_protocol(ptr noundef nonnull @.str.240, ptr noundef nonnull @.str, ptr noundef nonnull @.str.241)
  store i32 %1, ptr @proto_http2, align 4
  tail call void @proto_register_field_array(i32 noundef %1, ptr noundef nonnull @proto_register_http2.hf, i32 noundef 99)
  tail call void @proto_register_subtree_array(ptr noundef nonnull @proto_register_http2.ett, i32 noundef 9)
  %2 = load i32, ptr @proto_http2, align 4
  %3 = tail call ptr @prefs_register_protocol(i32 noundef %2, ptr noundef null)
  %4 = load i32, ptr @proto_http2, align 4
  %5 = tail call ptr @expert_register_protocol(i32 noundef %4)
  tail call void @expert_register_field_array(ptr noundef %5, ptr noundef nonnull @proto_register_http2.ei, i32 noundef 4)
  tail call void @prefs_register_obsolete_preference(ptr noundef %3, ptr noundef nonnull @.str.242)
  tail call void @register_init_routine(ptr noundef nonnull @http2_init_protocol)
  tail call void @register_cleanup_routine(ptr noundef nonnull @http2_cleanup_protocol)
  %6 = load i32, ptr @proto_http2, align 4
  %7 = tail call ptr @register_dissector(ptr noundef nonnull @.str.241, ptr noundef nonnull @dissect_http2, i32 noundef %6)
  store ptr %7, ptr @http2_handle, align 8
  tail call void @reassembly_table_register(ptr noundef nonnull @http2_body_reassembly_table, ptr noundef nonnull @addresses_ports_reassembly_table_functions)
  tail call void @reassembly_table_register(ptr noundef nonnull @http2_streaming_reassembly_table, ptr noundef nonnull @addresses_ports_reassembly_table_functions)
  %8 = load i32, ptr @proto_http2, align 4
  %9 = tail call ptr @register_dissector_table(ptr noundef nonnull @.str.243, ptr noundef nonnull @.str.244, i32 noundef %8, i32 noundef 26, i32 noundef 0)
  store ptr %9, ptr @streaming_content_type_dissector_table, align 8
  %10 = load i32, ptr @proto_http2, align 4
  %11 = tail call ptr @register_dissector_table(ptr noundef nonnull @.str.25, ptr noundef nonnull @.str.245, i32 noundef %10, i32 noundef 7, i32 noundef 1)
  store ptr %11, ptr @stream_id_content_type_dissector_table, align 8
  %12 = tail call i32 @register_tap(ptr noundef nonnull @.str.241)
  store i32 %12, ptr @http2_tap, align 4
  %13 = tail call i32 @register_tap(ptr noundef nonnull @.str.246)
  store i32 %13, ptr @http2_follow_tap, align 4
  %14 = load i32, ptr @proto_http2, align 4
  tail call void @register_follow_stream(i32 noundef %14, ptr noundef nonnull @.str.246, ptr noundef nonnull @http2_follow_conv_filter, ptr noundef nonnull @http2_follow_index_filter, ptr noundef nonnull @tcp_follow_address_filter, ptr noundef nonnull @tcp_port_to_display, ptr noundef nonnull @follow_http2_tap_listener, ptr noundef nonnull @get_tcp_stream_count, ptr noundef nonnull @http2_get_sub_stream_id)
  ret void
}